target datalayout = "e-m:e-p270:32:32-p271:32:32-p272:64:64-i64:64-i128:128-f80:128-n8:16:32:64-S128"
target triple = "x86_64-pc-linux-gnu"

@.str.1 = private unnamed_addr constant [12 x i8] c"xlogfuncs.c\00", align 1
@.str.6 = private unnamed_addr constant [24 x i8] c"recovery is in progress\00", align 1
@.str.7 = private unnamed_addr constant [58 x i8] c"WAL control functions cannot be executed during recovery.\00", align 1
@__func__.pg_current_wal_lsn = private unnamed_addr constant [19 x i8] c"pg_current_wal_lsn\00", align 1

; Function Attrs: inlinehint nounwind uwtable
define internal i64 @Int64GetDatum(i64 noundef %0) #3 {
  %2 = alloca i64, align 8
  store i64 %0, ptr %2, align 8
  %3 = load i64, ptr %2, align 8
  ret i64 %3
}

; Function Attrs: inlinehint nounwind uwtable
define internal i64 @LSNGetDatum(i64 noundef %0) #3 {
  %2 = alloca i64, align 8
  store i64 %0, ptr %2, align 8
  %3 = load i64, ptr %2, align 8
  %4 = call i64 @Int64GetDatum(i64 noundef %3)
  ret i64 %4
}

; Function Attrs: nounwind uwtable
define dso_local i64 @pg_current_wal_lsn(ptr noundef %0) #0 {
  %2 = alloca ptr, align 8
  %3 = alloca i64, align 8
  store ptr %0, ptr %2, align 8
  call void @llvm.lifetime.start.p0(i64 8, ptr %3) #9
  %4 = call zeroext i1 @RecoveryInProgress()
  br i1 %4, label %5, label %18

5:                                                ; preds = %1
  br label %6

6:                                                ; preds = %5
  br i1 true, label %7, label %9

7:                                                ; preds = %6
  %8 = call zeroext i1 @errstart_cold(i32 noundef 21, ptr noundef null) #10
  br i1 %8, label %11, label %15

9:                                                ; preds = %6
  %10 = call zeroext i1 @errstart(i32 noundef 21, ptr noundef null)
  br i1 %10, label %11, label %15

11:                                               ; preds = %9, %7
  %12 = call i32 @errcode(i32 noundef 325)
  %13 = call i32 (ptr, ...) @errmsg(ptr noundef @.str.6)
  %14 = call i32 (ptr, ...) @errhint(ptr noundef @.str.7)
  call void @errfinish(ptr noundef @.str.1, i32 noundef 282, ptr noundef @__func__.pg_current_wal_lsn)
  br label %15

15:                                               ; preds = %11, %9, %7
  unreachable

16:                                               ; No predecessors!
  br label %17

17:                                               ; preds = %16
  br label %18

18:                                               ; preds = %17, %1
  %19 = call i64 @GetXLogWriteRecPtr()
  store i64 %19, ptr %3, align 8
  %20 = load i64, ptr %3, align 8
  %21 = call i64 @LSNGetDatum(i64 noundef %20)
  call void @llvm.lifetime.end.p0(i64 8, ptr %3) #9
  ret i64 %21
}